; Function Attrs: mustprogress nounwind uwtable
define hidden void @_ZN8GraphKit38record_profiled_return_for_speculationEv(ptr nocapture noundef nonnull readonly align 8 dereferenceable(84) %0) local_unnamed_addr #0 align 2 {
  %2 = alloca i32, align 4
  %3 = alloca ptr, align 8
  %4 = load i8, ptr @UseTypeSpeculation, align 1
  %5 = trunc i8 %4 to i1
  br i1 %5, label %6, label %31

6:                                                ; preds = %1
  store i32 2, ptr %2, align 4
  store ptr null, ptr %3, align 8
  %7 = getelementptr inbounds i8, ptr %0, i64 64
  %8 = load ptr, ptr %7, align 8
  %9 = getelementptr inbounds i8, ptr %0, i64 56
  %10 = load i32, ptr %9, align 8
  %11 = call noundef zeroext i1 @_ZN8ciMethod20return_profiled_typeEiRP7ciKlassR14ProfilePtrKind(ptr noundef nonnull align 8 dereferenceable(160) %8, i32 noundef %10, ptr noundef nonnull align 8 dereferenceable(8) %3, ptr noundef nonnull align 4 dereferenceable(4) %2) #13
  br i1 %11, label %12, label %31

12:                                               ; preds = %6
  %13 = getelementptr inbounds i8, ptr %0, i64 80
  %14 = load i32, ptr %13, align 8
  %15 = add nsw i32 %14, -1
  %16 = getelementptr inbounds i8, ptr %0, i64 40
  %17 = load ptr, ptr %16, align 8
  %18 = getelementptr inbounds i8, ptr %17, i64 56
  %19 = load ptr, ptr %18, align 8
  %20 = getelementptr inbounds i8, ptr %19, i64 16
  %21 = load i32, ptr %20, align 8
  %22 = add i32 %15, %21
  %23 = getelementptr inbounds i8, ptr %17, i64 8
  %24 = load ptr, ptr %23, align 8
  %25 = zext i32 %22 to i64
  %26 = getelementptr inbounds ptr, ptr %24, i64 %25
  %27 = load ptr, ptr %26, align 8
  %28 = load ptr, ptr %3, align 8
  %29 = load i32, ptr %2, align 4
  %30 = call noundef ptr @_ZN8GraphKit30record_profile_for_speculationEP4NodeP7ciKlass14ProfilePtrKind(ptr noundef nonnull align 8 dereferenceable(84) %0, ptr noundef %27, ptr noundef %28, i32 noundef %29)
  br label %31

31:                                               ; preds = %1, %12, %6
  ret void
}